; ModuleID = 'source-C-CXX/27/1427.c'
source_filename = "source-C-CXX/27/1427.c"
target datalayout = "e-m:e-p270:32:32-p271:32:32-p272:64:64-i64:64-f80:128-n8:16:32:64-S128"
target triple = "x86_64-pc-linux-gnu"

@.str = private unnamed_addr constant [3 x i8] c"%d\00", align 1
@.str.1 = private unnamed_addr constant [4 x i8] c",%d\00", align 1

; Function Attrs: nounwind sspstrong uwtable
define dso_local i32 @main() local_unnamed_addr #0 {
  %1 = alloca [10000 x i8], align 16
  %2 = getelementptr inbounds [10000 x i8], [10000 x i8]* %1, i64 0, i64 0
  call void @llvm.lifetime.start.p0i8(i64 10000, i8* nonnull %2) #6
  %3 = call i32 (i8*, ...) bitcast (i32 (...)* @gets to i32 (i8*, ...)*)(i8* nonnull %2) #6
  %4 = call i64 @strlen(i8* noundef nonnull %2) #7
  %5 = trunc i64 %4 to i32
  %6 = icmp sgt i32 %5, 0
  br i1 %6, label %7, label %54

7:                                                ; preds = %0
  %8 = add i64 %4, 4294967295
  %9 = and i64 %8, 4294967295
  %10 = and i64 %4, 4294967295
  br label %11

11:                                               ; preds = %7, %50
  %12 = phi i64 [ 0, %7 ], [ %52, %50 ]
  %13 = phi i32 [ 0, %7 ], [ %51, %50 ]
  %14 = trunc i64 %12 to i32
  %15 = call i32 @llvm.smax.i32(i32 %14, i32 %5)
  %16 = icmp eq i64 %12, 0
  br i1 %16, label %26, label %17

17:                                               ; preds = %11
  %18 = add nsw i64 %12, -1
  %19 = getelementptr inbounds [10000 x i8], [10000 x i8]* %1, i64 0, i64 %18
  %20 = load i8, i8* %19, align 1, !tbaa !5
  %21 = icmp eq i8 %20, 32
  br i1 %21, label %22, label %50

22:                                               ; preds = %17
  %23 = getelementptr inbounds [10000 x i8], [10000 x i8]* %1, i64 0, i64 %12
  %24 = load i8, i8* %23, align 1, !tbaa !5
  %25 = icmp eq i8 %24, 32
  br i1 %25, label %50, label %26

26:                                               ; preds = %22, %11
  %27 = zext i32 %15 to i64
  br label %28

28:                                               ; preds = %31, %26
  %29 = phi i64 [ %32, %31 ], [ %12, %26 ]
  %30 = icmp eq i64 %29, %27
  br i1 %30, label %40, label %31

31:                                               ; preds = %28
  %32 = add nuw nsw i64 %29, 1
  %33 = getelementptr inbounds [10000 x i8], [10000 x i8]* %1, i64 0, i64 %32
  %34 = load i8, i8* %33, align 1, !tbaa !5
  %35 = icmp eq i8 %34, 32
  %36 = icmp eq i64 %29, %9
  %37 = select i1 %35, i1 true, i1 %36
  br i1 %37, label %38, label %28, !llvm.loop !8

38:                                               ; preds = %31
  %39 = trunc i64 %29 to i32
  br label %40

40:                                               ; preds = %28, %38
  %41 = phi i32 [ %39, %38 ], [ %15, %28 ]
  %42 = sub nsw i32 %41, %14
  %43 = add nsw i32 %42, 1
  %44 = icmp eq i32 %13, 0
  br i1 %44, label %45, label %47

45:                                               ; preds = %40
  %46 = call i32 (i8*, ...) @printf(i8* nonnull dereferenceable(1) getelementptr inbounds ([3 x i8], [3 x i8]* @.str, i64 0, i64 0), i32 %43)
  br label %50

47:                                               ; preds = %40
  %48 = call i32 (i8*, ...) @printf(i8* nonnull dereferenceable(1) getelementptr inbounds ([4 x i8], [4 x i8]* @.str.1, i64 0, i64 0), i32 %43)
  %49 = add nsw i32 %13, 1
  br label %50

50:                                               ; preds = %17, %22, %47, %45
  %51 = phi i32 [ 1, %45 ], [ %49, %47 ], [ %13, %22 ], [ %13, %17 ]
  %52 = add nuw nsw i64 %12, 1
  %53 = icmp eq i64 %52, %10
  br i1 %53, label %54, label %11, !llvm.loop !10

54:                                               ; preds = %50, %0
  call void @llvm.lifetime.end.p0i8(i64 10000, i8* nonnull %2) #6
  ret i32 0
}

; Function Attrs: argmemonly mustprogress nofree nosync nounwind willreturn
declare void @llvm.lifetime.start.p0i8(i64 immarg, i8* nocapture) #1

declare i32 @gets(...) local_unnamed_addr #2

; Function Attrs: argmemonly mustprogress nofree nounwind readonly willreturn
declare i64 @strlen(i8* nocapture) local_unnamed_addr #3

; Function Attrs: nofree nounwind
declare noundef i32 @printf(i8* nocapture noundef readonly, ...) local_unnamed_addr #4

; Function Attrs: argmemonly mustprogress nofree nosync nounwind willreturn
declare void @llvm.lifetime.end.p0i8(i64 immarg, i8* nocapture) #1

; Function Attrs: nofree nosync nounwind readnone speculatable willreturn
declare i32 @llvm.smax.i32(i32, i32) #5


!llvm.module.flags = !{!0, !1, !2, !3}
!llvm.ident = !{!4}

!0 = !{i32 1, !"wchar_size", i32 4}
!1 = !{i32 7, !"PIC Level", i32 2}
!2 = !{i32 7, !"PIE Level", i32 2}
!3 = !{i32 7, !"uwtable", i32 1}
!4 = !{!"clang version 13.0.0"}
!5 = !{!6, !6, i64 0}
!6 = !{!"omnipotent char", !7, i64 0}
!7 = !{!"Simple C/C++ TBAA"}
!8 = distinct !{!8, !9}
!9 = !{!"llvm.loop.mustprogress"}
!10 = distinct !{!10, !9}
